target datalayout = "e-m:e-p270:32:32-p271:32:32-p272:64:64-i64:64-i128:128-f80:128-n8:16:32:64-S128"
target triple = "x86_64-unknown-linux-gnu"

; Function Attrs: mustprogress uwtable
define hidden noundef zeroext i1 @_ZN7unifierclEP4exprS1_R12substitutionb(ptr noundef nonnull align 8 dereferenceable(57) %this, ptr noundef %e1, ptr noundef %e2, ptr noundef nonnull align 8 dereferenceable(124) %s, i1 noundef zeroext %use_offsets) #4 align 2 {
entry:
  %this.addr = alloca ptr, align 8
  %e1.addr = alloca ptr, align 8
  %e2.addr = alloca ptr, align 8
  %s.addr = alloca ptr, align 8
  %use_offsets.addr = alloca i8, align 1
  %es = alloca [2 x ptr], align 16
  store ptr %this, ptr %this.addr, align 8
  store ptr %e1, ptr %e1.addr, align 8
  store ptr %e2, ptr %e2.addr, align 8
  store ptr %s, ptr %s.addr, align 8
  %frombool = zext i1 %use_offsets to i8
  store i8 %frombool, ptr %use_offsets.addr, align 1
  %this1 = load ptr, ptr %this.addr, align 8
  %arrayinit.begin = getelementptr inbounds [2 x ptr], ptr %es, i64 0, i64 0
  %0 = load ptr, ptr %e1.addr, align 8
  store ptr %0, ptr %arrayinit.begin, align 8
  %arrayinit.element = getelementptr inbounds ptr, ptr %arrayinit.begin, i64 1
  %1 = load ptr, ptr %e2.addr, align 8
  store ptr %1, ptr %arrayinit.element, align 8
  %arraydecay = getelementptr inbounds [2 x ptr], ptr %es, i64 0, i64 0
  %2 = load ptr, ptr %s.addr, align 8
  %3 = load i8, ptr %use_offsets.addr, align 1
  %tobool = trunc i8 %3 to i1
  %call = call noundef zeroext i1 @_ZN7unifierclEjPP4exprR12substitutionb(ptr noundef nonnull align 8 dereferenceable(57) %this1, i32 noundef 2, ptr noundef %arraydecay, ptr noundef nonnull align 8 dereferenceable(124) %2, i1 noundef zeroext %tobool)
  ret i1 %call
}