; Function Attrs: mustprogress uwtable
define hidden noundef zeroext i1 @_ZN7unifierclEP4exprS1_R12substitutionb(ptr noundef nonnull align 8 dereferenceable(57) %this, ptr noundef %e1, ptr noundef %e2, ptr noundef nonnull align 8 dereferenceable(124) %s, i1 noundef zeroext %use_offsets) local_unnamed_addr #4 align 2 {
entry:
  %es = alloca [2 x ptr], align 16
  store ptr %e1, ptr %es, align 16
  %arrayinit.element = getelementptr inbounds i8, ptr %es, i64 8
  store ptr %e2, ptr %arrayinit.element, align 8
  %call = call noundef zeroext i1 @_ZN7unifierclEjPP4exprR12substitutionb(ptr noundef nonnull align 8 dereferenceable(57) %this, i32 noundef 2, ptr noundef nonnull %es, ptr noundef nonnull align 8 dereferenceable(124) %s, i1 noundef zeroext %use_offsets)
  ret i1 %call
}